; ModuleID = 'bench/openusd/original/TestTfRegistryFunctionPlugin.cpp.ll'
source_filename = "bench/openusd/original/TestTfRegistryFunctionPlugin.cpp.ll"
target datalayout = "e-m:e-p270:32:32-p271:32:32-p272:64:64-i64:64-i128:128-f80:128-n8:16:32:64-S128"
target triple = "x86_64-pc-linux-gnu"

%"struct.pxrInternal_v0_24__pxrReserved__::(anonymous namespace)::Tf_RegistryStaticInit" = type { i8 }

$__clang_call_terminate = comdat any

@.str = private unnamed_addr constant [21 x i8] c"MFB_ALT_PACKAGE_NAME\00", align 1
@.str.1 = private unnamed_addr constant [30 x i8] c"Tf_TestRegistryFunctionPlugin\00", align 1
@_ZN32pxrInternal_v0_24__pxrReserved__15Arch_PerLibInitINS_12_GLOBAL__N_121Tf_RegistryStaticInitEE4initE = internal global %"struct.pxrInternal_v0_24__pxrReserved__::(anonymous namespace)::Tf_RegistryStaticInit" zeroinitializer, align 1
@__dso_handle = external hidden global i8
@llvm.global_ctors = appending global [3 x { i32, ptr, ptr }] [{ i32, ptr, ptr } { i32 65535, ptr @__cxx_global_var_init.2, ptr null }, { i32, ptr, ptr } { i32 200, ptr @_ZL17_Tf_RegistryAdd19P29Tf_TestRegistryFunctionPlugin, ptr null }, { i32, ptr, ptr } { i32 65535, ptr @_GLOBAL__sub_I_TestTfRegistryFunctionPlugin.cpp, ptr null }]
@str = private unnamed_addr constant [209 x i8] c"* Running Tf_TestRegistryFunctionPlugin registry function from generated/home/dtcxzyw/WorkSpace/Projects/compilers/llvm-opt-benchmark/bench/openusd/OpenUSD/pxr/base/tf/testenv/TestTfRegistryFunctionPlugin.cpp\00", align 1
@llvm.compiler.used = appending global [1 x ptr] [ptr @_ZL17_Tf_RegistryAdd19P29Tf_TestRegistryFunctionPlugin], section "llvm.metadata"

; Function Attrs: mustprogress uwtable
define internal void @_ZL17_Tf_RegistryAdd19P29Tf_TestRegistryFunctionPlugin(ptr readnone captures(none) %0) #0 section ".pxrctor" {
  tail call void @_ZN32pxrInternal_v0_24__pxrReserved__15Tf_RegistryInit3AddEPKcPFvPvS3_ES2_(ptr noundef nonnull @.str, ptr noundef nonnull @_ZL22_Tf_RegistryFunction19P29Tf_TestRegistryFunctionPluginPv, ptr noundef nonnull @.str.1)
  ret void
}

; Function Attrs: mustprogress nofree nounwind uwtable
define internal void @_ZL22_Tf_RegistryFunction19P29Tf_TestRegistryFunctionPluginPv(ptr readnone captures(none) %0, ptr readnone captures(none) %1) #1 {
  %puts = tail call i32 @puts(ptr nonnull dereferenceable(1) @str)
  ret void
}

; Function Attrs: uwtable
define internal void @__cxx_global_var_init.2() #2 section ".text.startup" {
  tail call void @_ZN32pxrInternal_v0_24__pxrReserved__19Tf_RegistryInitCtorEPKc(ptr noundef nonnull @.str)
  %1 = tail call i32 @__cxa_atexit(ptr nonnull @_ZN32pxrInternal_v0_24__pxrReserved__12_GLOBAL__N_121Tf_RegistryStaticInitD2Ev, ptr nonnull @_ZN32pxrInternal_v0_24__pxrReserved__15Arch_PerLibInitINS_12_GLOBAL__N_121Tf_RegistryStaticInitEE4initE, ptr nonnull @__dso_handle) #9
  ret void
}

; Function Attrs: mustprogress nounwind uwtable
define internal void @_ZN32pxrInternal_v0_24__pxrReserved__12_GLOBAL__N_121Tf_RegistryStaticInitD2Ev(ptr nonnull readnone align 1 captures(none) %0) unnamed_addr #3 align 2 personality ptr @__gxx_personality_v0 {
  invoke void @_ZN32pxrInternal_v0_24__pxrReserved__19Tf_RegistryInitDtorEPKc(ptr noundef nonnull @.str)
          to label %2 unwind label %3

2:                                                ; preds = %1
  ret void

3:                                                ; preds = %1
  %4 = landingpad { ptr, i32 }
          catch ptr null
  %5 = extractvalue { ptr, i32 } %4, 0
  tail call void @__clang_call_terminate(ptr %5) #10
  unreachable
}

; Function Attrs: nofree nounwind
declare i32 @__cxa_atexit(ptr, ptr, ptr) local_unnamed_addr #4

declare void @_ZN32pxrInternal_v0_24__pxrReserved__15Tf_RegistryInit3AddEPKcPFvPvS3_ES2_(ptr noundef, ptr noundef, ptr noundef) local_unnamed_addr #5

declare void @_ZN32pxrInternal_v0_24__pxrReserved__19Tf_RegistryInitCtorEPKc(ptr noundef) local_unnamed_addr #5

declare void @_ZN32pxrInternal_v0_24__pxrReserved__19Tf_RegistryInitDtorEPKc(ptr noundef) local_unnamed_addr #5

declare i32 @__gxx_personality_v0(...)

; Function Attrs: noreturn nounwind uwtable
define linkonce_odr hidden void @__clang_call_terminate(ptr noundef %0) local_unnamed_addr #6 comdat {
  %2 = tail call ptr @__cxa_begin_catch(ptr %0) #9
  tail call void @_ZSt9terminatev() #10
  unreachable
}

declare ptr @__cxa_begin_catch(ptr) local_unnamed_addr

; Function Attrs: cold nofree noreturn
declare void @_ZSt9terminatev() local_unnamed_addr #7

; Function Attrs: mustprogress nofree norecurse nosync nounwind willreturn memory(none) uwtable
define internal void @_GLOBAL__sub_I_TestTfRegistryFunctionPlugin.cpp() #8 section ".text.startup" {
  ret void
}

; Function Attrs: nofree nounwind
declare noundef i32 @puts(ptr noundef readonly captures(none)) local_unnamed_addr #4


!llvm.module.flags = !{!0, !1, !2, !3}

!0 = !{i32 1, !"wchar_size", i32 4}
!1 = !{i32 8, !"PIC Level", i32 2}
!2 = !{i32 7, !"uwtable", i32 2}
!3 = !{i32 7, !"frame-pointer", i32 2}
